
MasterMain.elf:     file format elf32-avr

Sections:
Idx Name          Size      VMA       LMA       File off  Algn
  0 .text         00000598  00000000  00000000  00000094  2**1
                  CONTENTS, ALLOC, LOAD, READONLY, CODE
  1 .data         00000034  00800060  00000598  0000062c  2**0
                  CONTENTS, ALLOC, LOAD, DATA
  2 .bss          00000008  00800094  00800094  00000660  2**0
                  ALLOC
  3 .comment      00000030  00000000  00000000  00000660  2**0
                  CONTENTS, READONLY
  4 .note.gnu.avr.deviceinfo 0000003c  00000000  00000000  00000690  2**2
                  CONTENTS, READONLY
  5 .debug_aranges 00000070  00000000  00000000  000006cc  2**0
                  CONTENTS, READONLY, DEBUGGING
  6 .debug_info   00000dc6  00000000  00000000  0000073c  2**0
                  CONTENTS, READONLY, DEBUGGING
  7 .debug_abbrev 000006ce  00000000  00000000  00001502  2**0
                  CONTENTS, READONLY, DEBUGGING
  8 .debug_line   00000738  00000000  00000000  00001bd0  2**0
                  CONTENTS, READONLY, DEBUGGING
  9 .debug_frame  0000011c  00000000  00000000  00002308  2**2
                  CONTENTS, READONLY, DEBUGGING
 10 .debug_str    00000403  00000000  00000000  00002424  2**0
                  CONTENTS, READONLY, DEBUGGING
 11 .debug_loc    00000ab5  00000000  00000000  00002827  2**0
                  CONTENTS, READONLY, DEBUGGING
 12 .debug_ranges 000000b0  00000000  00000000  000032dc  2**0
                  CONTENTS, READONLY, DEBUGGING

Disassembly of section .text:

00000000 <__vectors>:
   0:	0c 94 2a 00 	jmp	0x54	; 0x54 <__ctors_end>
   4:	0c 94 47 00 	jmp	0x8e	; 0x8e <__bad_interrupt>
   8:	0c 94 47 00 	jmp	0x8e	; 0x8e <__bad_interrupt>
   c:	0c 94 47 00 	jmp	0x8e	; 0x8e <__bad_interrupt>
  10:	0c 94 47 00 	jmp	0x8e	; 0x8e <__bad_interrupt>
  14:	0c 94 47 00 	jmp	0x8e	; 0x8e <__bad_interrupt>
  18:	0c 94 47 00 	jmp	0x8e	; 0x8e <__bad_interrupt>
  1c:	0c 94 47 00 	jmp	0x8e	; 0x8e <__bad_interrupt>
  20:	0c 94 47 00 	jmp	0x8e	; 0x8e <__bad_interrupt>
  24:	0c 94 47 00 	jmp	0x8e	; 0x8e <__bad_interrupt>
  28:	0c 94 47 00 	jmp	0x8e	; 0x8e <__bad_interrupt>
  2c:	0c 94 47 00 	jmp	0x8e	; 0x8e <__bad_interrupt>
  30:	0c 94 47 00 	jmp	0x8e	; 0x8e <__bad_interrupt>
  34:	0c 94 47 00 	jmp	0x8e	; 0x8e <__bad_interrupt>
  38:	0c 94 47 00 	jmp	0x8e	; 0x8e <__bad_interrupt>
  3c:	0c 94 47 00 	jmp	0x8e	; 0x8e <__bad_interrupt>
  40:	0c 94 47 00 	jmp	0x8e	; 0x8e <__bad_interrupt>
  44:	0c 94 47 00 	jmp	0x8e	; 0x8e <__bad_interrupt>
  48:	0c 94 47 00 	jmp	0x8e	; 0x8e <__bad_interrupt>
  4c:	0c 94 47 00 	jmp	0x8e	; 0x8e <__bad_interrupt>
  50:	0c 94 47 00 	jmp	0x8e	; 0x8e <__bad_interrupt>

00000054 <__ctors_end>:
  54:	11 24       	eor	r1, r1
  56:	1f be       	out	0x3f, r1	; 63
  58:	cf e5       	ldi	r28, 0x5F	; 95
  5a:	d8 e0       	ldi	r29, 0x08	; 8
  5c:	de bf       	out	0x3e, r29	; 62
  5e:	cd bf       	out	0x3d, r28	; 61

00000060 <__do_copy_data>:
  60:	10 e0       	ldi	r17, 0x00	; 0
  62:	a0 e6       	ldi	r26, 0x60	; 96
  64:	b0 e0       	ldi	r27, 0x00	; 0
  66:	e8 e9       	ldi	r30, 0x98	; 152
  68:	f5 e0       	ldi	r31, 0x05	; 5
  6a:	02 c0       	rjmp	.+4      	; 0x70 <__do_copy_data+0x10>
  6c:	05 90       	lpm	r0, Z+
  6e:	0d 92       	st	X+, r0
  70:	a4 39       	cpi	r26, 0x94	; 148
  72:	b1 07       	cpc	r27, r17
  74:	d9 f7       	brne	.-10     	; 0x6c <__do_copy_data+0xc>

00000076 <__do_clear_bss>:
  76:	20 e0       	ldi	r18, 0x00	; 0
  78:	a4 e9       	ldi	r26, 0x94	; 148
  7a:	b0 e0       	ldi	r27, 0x00	; 0
  7c:	01 c0       	rjmp	.+2      	; 0x80 <.do_clear_bss_start>

0000007e <.do_clear_bss_loop>:
  7e:	1d 92       	st	X+, r1

00000080 <.do_clear_bss_start>:
  80:	ac 39       	cpi	r26, 0x9C	; 156
  82:	b2 07       	cpc	r27, r18
  84:	e1 f7       	brne	.-8      	; 0x7e <.do_clear_bss_loop>
  86:	0e 94 85 02 	call	0x50a	; 0x50a <main>
  8a:	0c 94 ca 02 	jmp	0x594	; 0x594 <_exit>

0000008e <__bad_interrupt>:
  8e:	0c 94 00 00 	jmp	0	; 0x0 <__vectors>

00000092 <GetKeyPressed>:
	//set MOSI, SCK, SS as output pins...
	SPI_DDR |= (1<<MISO);
	//Set MISO as input pin...
	SPI_DDR &=~(1<<MOSI) & ~(1<<SCK) & ~(1<<SS);
	//Enable SPI, Master mode, Shift Clock clk/16
	SPCR = (1<<SPE);
  92:	8b b3       	in	r24, 0x1b	; 27
  94:	8f 60       	ori	r24, 0x0F	; 15
  96:	8b bb       	out	0x1b, r24	; 27
  98:	60 e0       	ldi	r22, 0x00	; 0
  9a:	70 e0       	ldi	r23, 0x00	; 0
  9c:	e0 e1       	ldi	r30, 0x10	; 16
  9e:	f0 e0       	ldi	r31, 0x00	; 0
  a0:	86 2f       	mov	r24, r22
  a2:	2a b3       	in	r18, 0x1a	; 26
  a4:	20 78       	andi	r18, 0x80	; 128
  a6:	2a bb       	out	0x1a, r18	; 26
  a8:	9a b3       	in	r25, 0x1a	; 26
  aa:	9f 01       	movw	r18, r30
  ac:	06 2e       	mov	r0, r22
  ae:	02 c0       	rjmp	.+4      	; 0xb4 <GetKeyPressed+0x22>
  b0:	22 0f       	add	r18, r18
  b2:	33 1f       	adc	r19, r19
  b4:	0a 94       	dec	r0
  b6:	e2 f7       	brpl	.-8      	; 0xb0 <GetKeyPressed+0x1e>
  b8:	29 2b       	or	r18, r25
  ba:	2a bb       	out	0x1a, r18	; 26
  bc:	40 e0       	ldi	r20, 0x00	; 0
  be:	50 e0       	ldi	r21, 0x00	; 0
  c0:	94 2f       	mov	r25, r20
  c2:	29 b3       	in	r18, 0x19	; 25
  c4:	30 e0       	ldi	r19, 0x00	; 0
  c6:	04 2e       	mov	r0, r20
  c8:	02 c0       	rjmp	.+4      	; 0xce <GetKeyPressed+0x3c>
  ca:	35 95       	asr	r19
  cc:	27 95       	ror	r18
  ce:	0a 94       	dec	r0
  d0:	e2 f7       	brpl	.-8      	; 0xca <GetKeyPressed+0x38>
  d2:	20 fd       	sbrc	r18, 0
  d4:	0f c0       	rjmp	.+30     	; 0xf4 <GetKeyPressed+0x62>
  d6:	44 30       	cpi	r20, 0x04	; 4
  d8:	39 f4       	brne	.+14     	; 0xe8 <GetKeyPressed+0x56>
  da:	88 23       	and	r24, r24
  dc:	b9 f0       	breq	.+46     	; 0x10c <GetKeyPressed+0x7a>
  de:	81 30       	cpi	r24, 0x01	; 1
  e0:	b9 f0       	breq	.+46     	; 0x110 <GetKeyPressed+0x7e>
  e2:	82 30       	cpi	r24, 0x02	; 2
  e4:	61 f4       	brne	.+24     	; 0xfe <GetKeyPressed+0x6c>
  e6:	16 c0       	rjmp	.+44     	; 0x114 <GetKeyPressed+0x82>
  e8:	8f 5c       	subi	r24, 0xCF	; 207
  ea:	24 2f       	mov	r18, r20
  ec:	22 0f       	add	r18, r18
  ee:	92 0f       	add	r25, r18
  f0:	89 0f       	add	r24, r25
  f2:	08 95       	ret
  f4:	4f 5f       	subi	r20, 0xFF	; 255
  f6:	5f 4f       	sbci	r21, 0xFF	; 255
  f8:	44 30       	cpi	r20, 0x04	; 4
  fa:	51 05       	cpc	r21, r1
  fc:	09 f7       	brne	.-62     	; 0xc0 <GetKeyPressed+0x2e>
  fe:	6f 5f       	subi	r22, 0xFF	; 255
 100:	7f 4f       	sbci	r23, 0xFF	; 255
 102:	63 30       	cpi	r22, 0x03	; 3
 104:	71 05       	cpc	r23, r1
 106:	61 f6       	brne	.-104    	; 0xa0 <GetKeyPressed+0xe>
 108:	8f ef       	ldi	r24, 0xFF	; 255
 10a:	08 95       	ret
 10c:	8a e2       	ldi	r24, 0x2A	; 42
 10e:	08 95       	ret
 110:	80 e3       	ldi	r24, 0x30	; 48
 112:	08 95       	ret
 114:	83 e2       	ldi	r24, 0x23	; 35
 116:	08 95       	ret

00000118 <send_a_command>:
 118:	92 b3       	in	r25, 0x12	; 18
 11a:	9f 70       	andi	r25, 0x0F	; 15
 11c:	28 2f       	mov	r18, r24
 11e:	20 7f       	andi	r18, 0xF0	; 240
 120:	92 2b       	or	r25, r18
 122:	92 bb       	out	0x12, r25	; 18
 124:	90 98       	cbi	0x12, 0	; 18
 126:	91 9a       	sbi	0x12, 1	; 18
 128:	32 e0       	ldi	r19, 0x02	; 2
 12a:	3a 95       	dec	r19
 12c:	f1 f7       	brne	.-4      	; 0x12a <send_a_command+0x12>
 12e:	00 c0       	rjmp	.+0      	; 0x130 <send_a_command+0x18>
 130:	91 98       	cbi	0x12, 1	; 18
 132:	ef e8       	ldi	r30, 0x8F	; 143
 134:	f1 e0       	ldi	r31, 0x01	; 1
 136:	31 97       	sbiw	r30, 0x01	; 1
 138:	f1 f7       	brne	.-4      	; 0x136 <send_a_command+0x1e>
 13a:	00 c0       	rjmp	.+0      	; 0x13c <send_a_command+0x24>
 13c:	00 00       	nop
 13e:	22 b3       	in	r18, 0x12	; 18
 140:	2f 70       	andi	r18, 0x0F	; 15
 142:	f0 e1       	ldi	r31, 0x10	; 16
 144:	8f 9f       	mul	r24, r31
 146:	c0 01       	movw	r24, r0
 148:	11 24       	eor	r1, r1
 14a:	82 2b       	or	r24, r18
 14c:	82 bb       	out	0x12, r24	; 18
 14e:	91 9a       	sbi	0x12, 1	; 18
 150:	32 e0       	ldi	r19, 0x02	; 2
 152:	3a 95       	dec	r19
 154:	f1 f7       	brne	.-4      	; 0x152 <send_a_command+0x3a>
 156:	00 c0       	rjmp	.+0      	; 0x158 <send_a_command+0x40>
 158:	91 98       	cbi	0x12, 1	; 18
 15a:	8f e3       	ldi	r24, 0x3F	; 63
 15c:	9c e9       	ldi	r25, 0x9C	; 156
 15e:	01 97       	sbiw	r24, 0x01	; 1
 160:	f1 f7       	brne	.-4      	; 0x15e <send_a_command+0x46>
 162:	00 c0       	rjmp	.+0      	; 0x164 <send_a_command+0x4c>
 164:	00 00       	nop
 166:	08 95       	ret

00000168 <send_a_character>:
 168:	92 b3       	in	r25, 0x12	; 18
 16a:	9f 70       	andi	r25, 0x0F	; 15
 16c:	28 2f       	mov	r18, r24
 16e:	20 7f       	andi	r18, 0xF0	; 240
 170:	92 2b       	or	r25, r18
 172:	92 bb       	out	0x12, r25	; 18
 174:	90 9a       	sbi	0x12, 0	; 18
 176:	91 9a       	sbi	0x12, 1	; 18
 178:	32 e0       	ldi	r19, 0x02	; 2
 17a:	3a 95       	dec	r19
 17c:	f1 f7       	brne	.-4      	; 0x17a <send_a_character+0x12>
 17e:	00 c0       	rjmp	.+0      	; 0x180 <send_a_character+0x18>
 180:	91 98       	cbi	0x12, 1	; 18
 182:	ef e8       	ldi	r30, 0x8F	; 143
 184:	f1 e0       	ldi	r31, 0x01	; 1
 186:	31 97       	sbiw	r30, 0x01	; 1
 188:	f1 f7       	brne	.-4      	; 0x186 <send_a_character+0x1e>
 18a:	00 c0       	rjmp	.+0      	; 0x18c <send_a_character+0x24>
 18c:	00 00       	nop
 18e:	22 b3       	in	r18, 0x12	; 18
 190:	2f 70       	andi	r18, 0x0F	; 15
 192:	f0 e1       	ldi	r31, 0x10	; 16
 194:	8f 9f       	mul	r24, r31
 196:	c0 01       	movw	r24, r0
 198:	11 24       	eor	r1, r1
 19a:	82 2b       	or	r24, r18
 19c:	82 bb       	out	0x12, r24	; 18
 19e:	91 9a       	sbi	0x12, 1	; 18
 1a0:	32 e0       	ldi	r19, 0x02	; 2
 1a2:	3a 95       	dec	r19
 1a4:	f1 f7       	brne	.-4      	; 0x1a2 <send_a_character+0x3a>
 1a6:	00 c0       	rjmp	.+0      	; 0x1a8 <send_a_character+0x40>
 1a8:	91 98       	cbi	0x12, 1	; 18
 1aa:	8f e3       	ldi	r24, 0x3F	; 63
 1ac:	9c e9       	ldi	r25, 0x9C	; 156
 1ae:	01 97       	sbiw	r24, 0x01	; 1
 1b0:	f1 f7       	brne	.-4      	; 0x1ae <send_a_character+0x46>
 1b2:	00 c0       	rjmp	.+0      	; 0x1b4 <send_a_character+0x4c>
 1b4:	00 00       	nop
 1b6:	08 95       	ret

000001b8 <LCD_GeneralMessage>:
 1b8:	af 92       	push	r10
 1ba:	bf 92       	push	r11
 1bc:	cf 92       	push	r12
 1be:	df 92       	push	r13
 1c0:	ef 92       	push	r14
 1c2:	ff 92       	push	r15
 1c4:	0f 93       	push	r16
 1c6:	1f 93       	push	r17
 1c8:	cf 93       	push	r28
 1ca:	df 93       	push	r29
 1cc:	d8 2f       	mov	r29, r24
 1ce:	c6 2f       	mov	r28, r22
 1d0:	6a 01       	movw	r12, r20
 1d2:	79 01       	movw	r14, r18
 1d4:	81 b3       	in	r24, 0x11	; 17
 1d6:	80 6f       	ori	r24, 0xF0	; 240
 1d8:	81 bb       	out	0x11, r24	; 17
 1da:	88 9a       	sbi	0x11, 0	; 17
 1dc:	89 9a       	sbi	0x11, 1	; 17
 1de:	d1 31       	cpi	r29, 0x11	; 17
 1e0:	20 f0       	brcs	.+8      	; 0x1ea <LCD_GeneralMessage+0x32>
 1e2:	d3 36       	cpi	r29, 0x63	; 99
 1e4:	09 f0       	breq	.+2      	; 0x1e8 <LCD_GeneralMessage+0x30>
 1e6:	56 c0       	rjmp	.+172    	; 0x294 <LCD_GeneralMessage+0xdc>
 1e8:	62 c0       	rjmp	.+196    	; 0x2ae <LCD_GeneralMessage+0xf6>
 1ea:	60 31       	cpi	r22, 0x10	; 16
 1ec:	10 f4       	brcc	.+4      	; 0x1f2 <LCD_GeneralMessage+0x3a>
 1ee:	05 c0       	rjmp	.+10     	; 0x1fa <LCD_GeneralMessage+0x42>
 1f0:	d0 e0       	ldi	r29, 0x00	; 0
 1f2:	c3 36       	cpi	r28, 0x63	; 99
 1f4:	09 f0       	breq	.+2      	; 0x1f8 <LCD_GeneralMessage+0x40>
 1f6:	78 c0       	rjmp	.+240    	; 0x2e8 <LCD_GeneralMessage+0x130>
 1f8:	62 c0       	rjmp	.+196    	; 0x2be <LCD_GeneralMessage+0x106>
 1fa:	2f e7       	ldi	r18, 0x7F	; 127
 1fc:	88 e3       	ldi	r24, 0x38	; 56
 1fe:	91 e0       	ldi	r25, 0x01	; 1
 200:	21 50       	subi	r18, 0x01	; 1
 202:	80 40       	sbci	r24, 0x00	; 0
 204:	90 40       	sbci	r25, 0x00	; 0
 206:	e1 f7       	brne	.-8      	; 0x200 <LCD_GeneralMessage+0x48>
 208:	00 c0       	rjmp	.+0      	; 0x20a <LCD_GeneralMessage+0x52>
 20a:	00 00       	nop
 20c:	d3 36       	cpi	r29, 0x63	; 99
 20e:	e1 f0       	breq	.+56     	; 0x248 <LCD_GeneralMessage+0x90>
 210:	fa 01       	movw	r30, r20
 212:	80 81       	ld	r24, Z
 214:	81 11       	cpse	r24, r1
 216:	04 c0       	rjmp	.+8      	; 0x220 <LCD_GeneralMessage+0x68>
 218:	17 c0       	rjmp	.+46     	; 0x248 <LCD_GeneralMessage+0x90>
 21a:	c0 e0       	ldi	r28, 0x00	; 0
 21c:	01 c0       	rjmp	.+2      	; 0x220 <LCD_GeneralMessage+0x68>
 21e:	c3 e6       	ldi	r28, 0x63	; 99
 220:	dd 23       	and	r29, r29
 222:	29 f0       	breq	.+10     	; 0x22e <LCD_GeneralMessage+0x76>
 224:	84 e1       	ldi	r24, 0x14	; 20
 226:	0e 94 8c 00 	call	0x118	; 0x118 <send_a_command>
 22a:	d1 50       	subi	r29, 0x01	; 1
 22c:	d9 f7       	brne	.-10     	; 0x224 <LCD_GeneralMessage+0x6c>
 22e:	86 01       	movw	r16, r12
 230:	56 01       	movw	r10, r12
 232:	f0 e1       	ldi	r31, 0x10	; 16
 234:	af 0e       	add	r10, r31
 236:	b1 1c       	adc	r11, r1
 238:	63 c0       	rjmp	.+198    	; 0x300 <LCD_GeneralMessage+0x148>
 23a:	a0 16       	cp	r10, r16
 23c:	b1 06       	cpc	r11, r17
 23e:	21 f0       	breq	.+8      	; 0x248 <LCD_GeneralMessage+0x90>
 240:	f8 01       	movw	r30, r16
 242:	80 81       	ld	r24, Z
 244:	81 11       	cpse	r24, r1
 246:	5c c0       	rjmp	.+184    	; 0x300 <LCD_GeneralMessage+0x148>
 248:	80 ec       	ldi	r24, 0xC0	; 192
 24a:	0e 94 8c 00 	call	0x118	; 0x118 <send_a_command>
 24e:	c3 36       	cpi	r28, 0x63	; 99
 250:	09 f4       	brne	.+2      	; 0x254 <LCD_GeneralMessage+0x9c>
 252:	9f c0       	rjmp	.+318    	; 0x392 <LCD_GeneralMessage+0x1da>
 254:	f7 01       	movw	r30, r14
 256:	80 81       	ld	r24, Z
 258:	81 11       	cpse	r24, r1
 25a:	0b c0       	rjmp	.+22     	; 0x272 <LCD_GeneralMessage+0xba>
 25c:	9a c0       	rjmp	.+308    	; 0x392 <LCD_GeneralMessage+0x1da>
 25e:	84 e1       	ldi	r24, 0x14	; 20
 260:	0e 94 8c 00 	call	0x118	; 0x118 <send_a_command>
 264:	c1 50       	subi	r28, 0x01	; 1
 266:	d9 f7       	brne	.-10     	; 0x25e <LCD_GeneralMessage+0xa6>
 268:	5e c0       	rjmp	.+188    	; 0x326 <LCD_GeneralMessage+0x16e>
 26a:	88 81       	ld	r24, Y
 26c:	81 11       	cpse	r24, r1
 26e:	5f c0       	rjmp	.+190    	; 0x32e <LCD_GeneralMessage+0x176>
 270:	90 c0       	rjmp	.+288    	; 0x392 <LCD_GeneralMessage+0x1da>
 272:	c1 11       	cpse	r28, r1
 274:	f4 cf       	rjmp	.-24     	; 0x25e <LCD_GeneralMessage+0xa6>
 276:	57 c0       	rjmp	.+174    	; 0x326 <LCD_GeneralMessage+0x16e>
 278:	ff e7       	ldi	r31, 0x7F	; 127
 27a:	28 e3       	ldi	r18, 0x38	; 56
 27c:	81 e0       	ldi	r24, 0x01	; 1
 27e:	f1 50       	subi	r31, 0x01	; 1
 280:	20 40       	sbci	r18, 0x00	; 0
 282:	80 40       	sbci	r24, 0x00	; 0
 284:	e1 f7       	brne	.-8      	; 0x27e <LCD_GeneralMessage+0xc6>
 286:	00 c0       	rjmp	.+0      	; 0x288 <LCD_GeneralMessage+0xd0>
 288:	00 00       	nop
 28a:	f6 01       	movw	r30, r12
 28c:	80 81       	ld	r24, Z
 28e:	88 23       	and	r24, r24
 290:	d9 f2       	breq	.-74     	; 0x248 <LCD_GeneralMessage+0x90>
 292:	cd cf       	rjmp	.-102    	; 0x22e <LCD_GeneralMessage+0x76>
 294:	60 31       	cpi	r22, 0x10	; 16
 296:	80 f3       	brcs	.-32     	; 0x278 <LCD_GeneralMessage+0xc0>
 298:	ab cf       	rjmp	.-170    	; 0x1f0 <LCD_GeneralMessage+0x38>
 29a:	ff e7       	ldi	r31, 0x7F	; 127
 29c:	28 e3       	ldi	r18, 0x38	; 56
 29e:	81 e0       	ldi	r24, 0x01	; 1
 2a0:	f1 50       	subi	r31, 0x01	; 1
 2a2:	20 40       	sbci	r18, 0x00	; 0
 2a4:	80 40       	sbci	r24, 0x00	; 0
 2a6:	e1 f7       	brne	.-8      	; 0x2a0 <LCD_GeneralMessage+0xe8>
 2a8:	00 c0       	rjmp	.+0      	; 0x2aa <LCD_GeneralMessage+0xf2>
 2aa:	00 00       	nop
 2ac:	cd cf       	rjmp	.-102    	; 0x248 <LCD_GeneralMessage+0x90>
 2ae:	60 31       	cpi	r22, 0x10	; 16
 2b0:	08 f0       	brcs	.+2      	; 0x2b4 <LCD_GeneralMessage+0xfc>
 2b2:	58 c0       	rjmp	.+176    	; 0x364 <LCD_GeneralMessage+0x1ac>
 2b4:	f2 cf       	rjmp	.-28     	; 0x29a <LCD_GeneralMessage+0xe2>
 2b6:	80 ec       	ldi	r24, 0xC0	; 192
 2b8:	0e 94 8c 00 	call	0x118	; 0x118 <send_a_command>
 2bc:	6a c0       	rjmp	.+212    	; 0x392 <LCD_GeneralMessage+0x1da>
 2be:	9f e7       	ldi	r25, 0x7F	; 127
 2c0:	e8 e3       	ldi	r30, 0x38	; 56
 2c2:	f1 e0       	ldi	r31, 0x01	; 1
 2c4:	91 50       	subi	r25, 0x01	; 1
 2c6:	e0 40       	sbci	r30, 0x00	; 0
 2c8:	f0 40       	sbci	r31, 0x00	; 0
 2ca:	e1 f7       	brne	.-8      	; 0x2c4 <LCD_GeneralMessage+0x10c>
 2cc:	00 c0       	rjmp	.+0      	; 0x2ce <LCD_GeneralMessage+0x116>
 2ce:	00 00       	nop
 2d0:	d3 36       	cpi	r29, 0x63	; 99
 2d2:	09 f0       	breq	.+2      	; 0x2d6 <LCD_GeneralMessage+0x11e>
 2d4:	59 c0       	rjmp	.+178    	; 0x388 <LCD_GeneralMessage+0x1d0>
 2d6:	ef cf       	rjmp	.-34     	; 0x2b6 <LCD_GeneralMessage+0xfe>
 2d8:	80 ec       	ldi	r24, 0xC0	; 192
 2da:	0e 94 8c 00 	call	0x118	; 0x118 <send_a_command>
 2de:	f7 01       	movw	r30, r14
 2e0:	80 81       	ld	r24, Z
 2e2:	81 11       	cpse	r24, r1
 2e4:	20 c0       	rjmp	.+64     	; 0x326 <LCD_GeneralMessage+0x16e>
 2e6:	55 c0       	rjmp	.+170    	; 0x392 <LCD_GeneralMessage+0x1da>
 2e8:	ff e7       	ldi	r31, 0x7F	; 127
 2ea:	28 e3       	ldi	r18, 0x38	; 56
 2ec:	81 e0       	ldi	r24, 0x01	; 1
 2ee:	f1 50       	subi	r31, 0x01	; 1
 2f0:	20 40       	sbci	r18, 0x00	; 0
 2f2:	80 40       	sbci	r24, 0x00	; 0
 2f4:	e1 f7       	brne	.-8      	; 0x2ee <LCD_GeneralMessage+0x136>
 2f6:	00 c0       	rjmp	.+0      	; 0x2f8 <LCD_GeneralMessage+0x140>
 2f8:	00 00       	nop
 2fa:	d3 36       	cpi	r29, 0x63	; 99
 2fc:	e1 f5       	brne	.+120    	; 0x376 <LCD_GeneralMessage+0x1be>
 2fe:	ec cf       	rjmp	.-40     	; 0x2d8 <LCD_GeneralMessage+0x120>
 300:	f8 01       	movw	r30, r16
 302:	81 91       	ld	r24, Z+
 304:	8f 01       	movw	r16, r30
 306:	0e 94 b4 00 	call	0x168	; 0x168 <send_a_character>
 30a:	ff e7       	ldi	r31, 0x7F	; 127
 30c:	28 e3       	ldi	r18, 0x38	; 56
 30e:	81 e0       	ldi	r24, 0x01	; 1
 310:	f1 50       	subi	r31, 0x01	; 1
 312:	20 40       	sbci	r18, 0x00	; 0
 314:	80 40       	sbci	r24, 0x00	; 0
 316:	e1 f7       	brne	.-8      	; 0x310 <LCD_GeneralMessage+0x158>
 318:	00 c0       	rjmp	.+0      	; 0x31a <LCD_GeneralMessage+0x162>
 31a:	00 00       	nop
 31c:	f6 01       	movw	r30, r12
 31e:	80 81       	ld	r24, Z
 320:	81 11       	cpse	r24, r1
 322:	8b cf       	rjmp	.-234    	; 0x23a <LCD_GeneralMessage+0x82>
 324:	91 cf       	rjmp	.-222    	; 0x248 <LCD_GeneralMessage+0x90>
 326:	e7 01       	movw	r28, r14
 328:	f0 e1       	ldi	r31, 0x10	; 16
 32a:	ef 0e       	add	r14, r31
 32c:	f1 1c       	adc	r15, r1
 32e:	89 91       	ld	r24, Y+
 330:	0e 94 b4 00 	call	0x168	; 0x168 <send_a_character>
 334:	2f ef       	ldi	r18, 0xFF	; 255
 336:	8f ea       	ldi	r24, 0xAF	; 175
 338:	94 e0       	ldi	r25, 0x04	; 4
 33a:	21 50       	subi	r18, 0x01	; 1
 33c:	80 40       	sbci	r24, 0x00	; 0
 33e:	90 40       	sbci	r25, 0x00	; 0
 340:	e1 f7       	brne	.-8      	; 0x33a <LCD_GeneralMessage+0x182>
 342:	00 c0       	rjmp	.+0      	; 0x344 <LCD_GeneralMessage+0x18c>
 344:	00 00       	nop
 346:	ce 15       	cp	r28, r14
 348:	df 05       	cpc	r29, r15
 34a:	09 f0       	breq	.+2      	; 0x34e <LCD_GeneralMessage+0x196>
 34c:	8e cf       	rjmp	.-228    	; 0x26a <LCD_GeneralMessage+0xb2>
 34e:	21 c0       	rjmp	.+66     	; 0x392 <LCD_GeneralMessage+0x1da>
 350:	ef e7       	ldi	r30, 0x7F	; 127
 352:	f8 e3       	ldi	r31, 0x38	; 56
 354:	21 e0       	ldi	r18, 0x01	; 1
 356:	e1 50       	subi	r30, 0x01	; 1
 358:	f0 40       	sbci	r31, 0x00	; 0
 35a:	20 40       	sbci	r18, 0x00	; 0
 35c:	e1 f7       	brne	.-8      	; 0x356 <LCD_GeneralMessage+0x19e>
 35e:	00 c0       	rjmp	.+0      	; 0x360 <LCD_GeneralMessage+0x1a8>
 360:	00 00       	nop
 362:	ba cf       	rjmp	.-140    	; 0x2d8 <LCD_GeneralMessage+0x120>
 364:	63 36       	cpi	r22, 0x63	; 99
 366:	09 f4       	brne	.+2      	; 0x36a <LCD_GeneralMessage+0x1b2>
 368:	aa cf       	rjmp	.-172    	; 0x2be <LCD_GeneralMessage+0x106>
 36a:	f2 cf       	rjmp	.-28     	; 0x350 <LCD_GeneralMessage+0x198>
 36c:	80 ec       	ldi	r24, 0xC0	; 192
 36e:	0e 94 8c 00 	call	0x118	; 0x118 <send_a_command>
 372:	c0 e0       	ldi	r28, 0x00	; 0
 374:	6f cf       	rjmp	.-290    	; 0x254 <LCD_GeneralMessage+0x9c>
 376:	f6 01       	movw	r30, r12
 378:	80 81       	ld	r24, Z
 37a:	81 11       	cpse	r24, r1
 37c:	4e cf       	rjmp	.-356    	; 0x21a <LCD_GeneralMessage+0x62>
 37e:	f6 cf       	rjmp	.-20     	; 0x36c <LCD_GeneralMessage+0x1b4>
 380:	80 ec       	ldi	r24, 0xC0	; 192
 382:	0e 94 8c 00 	call	0x118	; 0x118 <send_a_command>
 386:	05 c0       	rjmp	.+10     	; 0x392 <LCD_GeneralMessage+0x1da>
 388:	f6 01       	movw	r30, r12
 38a:	80 81       	ld	r24, Z
 38c:	81 11       	cpse	r24, r1
 38e:	47 cf       	rjmp	.-370    	; 0x21e <LCD_GeneralMessage+0x66>
 390:	f7 cf       	rjmp	.-18     	; 0x380 <LCD_GeneralMessage+0x1c8>
 392:	df 91       	pop	r29
 394:	cf 91       	pop	r28
 396:	1f 91       	pop	r17
 398:	0f 91       	pop	r16
 39a:	ff 90       	pop	r15
 39c:	ef 90       	pop	r14
 39e:	df 90       	pop	r13
 3a0:	cf 90       	pop	r12
 3a2:	bf 90       	pop	r11
 3a4:	af 90       	pop	r10
 3a6:	08 95       	ret

000003a8 <LCD_Init>:
 3a8:	81 b3       	in	r24, 0x11	; 17
 3aa:	80 6f       	ori	r24, 0xF0	; 240
 3ac:	81 bb       	out	0x11, r24	; 17
 3ae:	88 9a       	sbi	0x11, 0	; 17
 3b0:	89 9a       	sbi	0x11, 1	; 17
 3b2:	2f e7       	ldi	r18, 0x7F	; 127
 3b4:	88 e3       	ldi	r24, 0x38	; 56
 3b6:	91 e0       	ldi	r25, 0x01	; 1
 3b8:	21 50       	subi	r18, 0x01	; 1
 3ba:	80 40       	sbci	r24, 0x00	; 0
 3bc:	90 40       	sbci	r25, 0x00	; 0
 3be:	e1 f7       	brne	.-8      	; 0x3b8 <LCD_Init+0x10>
 3c0:	00 c0       	rjmp	.+0      	; 0x3c2 <LCD_Init+0x1a>
 3c2:	00 00       	nop
 3c4:	82 e0       	ldi	r24, 0x02	; 2
 3c6:	0e 94 8c 00 	call	0x118	; 0x118 <send_a_command>
 3ca:	88 e2       	ldi	r24, 0x28	; 40
 3cc:	0e 94 8c 00 	call	0x118	; 0x118 <send_a_command>
 3d0:	8e e0       	ldi	r24, 0x0E	; 14
 3d2:	0e 94 8c 00 	call	0x118	; 0x118 <send_a_command>
 3d6:	86 e0       	ldi	r24, 0x06	; 6
 3d8:	0e 94 8c 00 	call	0x118	; 0x118 <send_a_command>
 3dc:	81 e0       	ldi	r24, 0x01	; 1
 3de:	0e 94 8c 00 	call	0x118	; 0x118 <send_a_command>
 3e2:	08 95       	ret

000003e4 <LCD_Pass_Req01>:
 3e4:	ef 92       	push	r14
 3e6:	ff 92       	push	r15
 3e8:	0f 93       	push	r16
 3ea:	1f 93       	push	r17
 3ec:	cf 93       	push	r28
 3ee:	df 93       	push	r29
 3f0:	cd b7       	in	r28, 0x3d	; 61
 3f2:	de b7       	in	r29, 0x3e	; 62
 3f4:	60 97       	sbiw	r28, 0x10	; 16
 3f6:	0f b6       	in	r0, 0x3f	; 63
 3f8:	f8 94       	cli
 3fa:	de bf       	out	0x3e, r29	; 62
 3fc:	0f be       	out	0x3f, r0	; 63
 3fe:	cd bf       	out	0x3d, r28	; 61
 400:	80 e1       	ldi	r24, 0x10	; 16
 402:	e1 e6       	ldi	r30, 0x61	; 97
 404:	f0 e0       	ldi	r31, 0x00	; 0
 406:	de 01       	movw	r26, r28
 408:	11 96       	adiw	r26, 0x01	; 1
 40a:	01 90       	ld	r0, Z+
 40c:	0d 92       	st	X+, r0
 40e:	8a 95       	dec	r24
 410:	e1 f7       	brne	.-8      	; 0x40a <__LOCK_REGION_LENGTH__+0xa>
 412:	81 b3       	in	r24, 0x11	; 17
 414:	80 6f       	ori	r24, 0xF0	; 240
 416:	81 bb       	out	0x11, r24	; 17
 418:	88 9a       	sbi	0x11, 0	; 17
 41a:	89 9a       	sbi	0x11, 1	; 17
 41c:	2f e7       	ldi	r18, 0x7F	; 127
 41e:	88 e3       	ldi	r24, 0x38	; 56
 420:	91 e0       	ldi	r25, 0x01	; 1
 422:	21 50       	subi	r18, 0x01	; 1
 424:	80 40       	sbci	r24, 0x00	; 0
 426:	90 40       	sbci	r25, 0x00	; 0
 428:	e1 f7       	brne	.-8      	; 0x422 <__LOCK_REGION_LENGTH__+0x22>
 42a:	00 c0       	rjmp	.+0      	; 0x42c <__LOCK_REGION_LENGTH__+0x2c>
 42c:	00 00       	nop
 42e:	81 e0       	ldi	r24, 0x01	; 1
 430:	0e 94 8c 00 	call	0x118	; 0x118 <send_a_command>
 434:	8e e0       	ldi	r24, 0x0E	; 14
 436:	0e 94 8c 00 	call	0x118	; 0x118 <send_a_command>
 43a:	89 81       	ldd	r24, Y+1	; 0x01
 43c:	81 11       	cpse	r24, r1
 43e:	1a c0       	rjmp	.+52     	; 0x474 <__LOCK_REGION_LENGTH__+0x74>
 440:	15 c0       	rjmp	.+42     	; 0x46c <__LOCK_REGION_LENGTH__+0x6c>
 442:	0f 5f       	subi	r16, 0xFF	; 255
 444:	1f 4f       	sbci	r17, 0xFF	; 255
 446:	80 81       	ld	r24, Z
 448:	0e 94 b4 00 	call	0x168	; 0x168 <send_a_character>
 44c:	af e7       	ldi	r26, 0x7F	; 127
 44e:	b8 e3       	ldi	r27, 0x38	; 56
 450:	21 e0       	ldi	r18, 0x01	; 1
 452:	a1 50       	subi	r26, 0x01	; 1
 454:	b0 40       	sbci	r27, 0x00	; 0
 456:	20 40       	sbci	r18, 0x00	; 0
 458:	e1 f7       	brne	.-8      	; 0x452 <__LOCK_REGION_LENGTH__+0x52>
 45a:	00 c0       	rjmp	.+0      	; 0x45c <__LOCK_REGION_LENGTH__+0x5c>
 45c:	00 00       	nop
 45e:	0e 15       	cp	r16, r14
 460:	1f 05       	cpc	r17, r15
 462:	21 f0       	breq	.+8      	; 0x46c <__LOCK_REGION_LENGTH__+0x6c>
 464:	f8 01       	movw	r30, r16
 466:	80 81       	ld	r24, Z
 468:	81 11       	cpse	r24, r1
 46a:	eb cf       	rjmp	.-42     	; 0x442 <__LOCK_REGION_LENGTH__+0x42>
 46c:	80 ec       	ldi	r24, 0xC0	; 192
 46e:	0e 94 8c 00 	call	0x118	; 0x118 <send_a_command>
 472:	14 c0       	rjmp	.+40     	; 0x49c <__LOCK_REGION_LENGTH__+0x9c>
 474:	89 81       	ldd	r24, Y+1	; 0x01
 476:	0e 94 b4 00 	call	0x168	; 0x168 <send_a_character>
 47a:	8f e7       	ldi	r24, 0x7F	; 127
 47c:	98 e3       	ldi	r25, 0x38	; 56
 47e:	a1 e0       	ldi	r26, 0x01	; 1
 480:	81 50       	subi	r24, 0x01	; 1
 482:	90 40       	sbci	r25, 0x00	; 0
 484:	a0 40       	sbci	r26, 0x00	; 0
 486:	e1 f7       	brne	.-8      	; 0x480 <__LOCK_REGION_LENGTH__+0x80>
 488:	00 c0       	rjmp	.+0      	; 0x48a <__LOCK_REGION_LENGTH__+0x8a>
 48a:	00 00       	nop
 48c:	8e 01       	movw	r16, r28
 48e:	0e 5f       	subi	r16, 0xFE	; 254
 490:	1f 4f       	sbci	r17, 0xFF	; 255
 492:	7e 01       	movw	r14, r28
 494:	b1 e1       	ldi	r27, 0x11	; 17
 496:	eb 0e       	add	r14, r27
 498:	f1 1c       	adc	r15, r1
 49a:	e4 cf       	rjmp	.-56     	; 0x464 <__LOCK_REGION_LENGTH__+0x64>
 49c:	60 96       	adiw	r28, 0x10	; 16
 49e:	0f b6       	in	r0, 0x3f	; 63
 4a0:	f8 94       	cli
 4a2:	de bf       	out	0x3e, r29	; 62
 4a4:	0f be       	out	0x3f, r0	; 63
 4a6:	cd bf       	out	0x3d, r28	; 61
 4a8:	df 91       	pop	r29
 4aa:	cf 91       	pop	r28
 4ac:	1f 91       	pop	r17
 4ae:	0f 91       	pop	r16
 4b0:	ff 90       	pop	r15
 4b2:	ef 90       	pop	r14
 4b4:	08 95       	ret

000004b6 <LCD_Pass_Req02>:
 4b6:	8f 3f       	cpi	r24, 0xFF	; 255
 4b8:	d9 f0       	breq	.+54     	; 0x4f0 <LCD_Pass_Req02+0x3a>
 4ba:	20 91 94 00 	lds	r18, 0x0094	; 0x800094 <__data_end>
 4be:	30 91 95 00 	lds	r19, 0x0095	; 0x800095 <__data_end+0x1>
 4c2:	26 30       	cpi	r18, 0x06	; 6
 4c4:	31 05       	cpc	r19, r1
 4c6:	a1 f0       	breq	.+40     	; 0x4f0 <LCD_Pass_Req02+0x3a>
 4c8:	0e 94 b4 00 	call	0x168	; 0x168 <send_a_character>
 4cc:	2f e7       	ldi	r18, 0x7F	; 127
 4ce:	88 e3       	ldi	r24, 0x38	; 56
 4d0:	91 e0       	ldi	r25, 0x01	; 1
 4d2:	21 50       	subi	r18, 0x01	; 1
 4d4:	80 40       	sbci	r24, 0x00	; 0
 4d6:	90 40       	sbci	r25, 0x00	; 0
 4d8:	e1 f7       	brne	.-8      	; 0x4d2 <LCD_Pass_Req02+0x1c>
 4da:	00 c0       	rjmp	.+0      	; 0x4dc <LCD_Pass_Req02+0x26>
 4dc:	00 00       	nop
 4de:	80 91 94 00 	lds	r24, 0x0094	; 0x800094 <__data_end>
 4e2:	90 91 95 00 	lds	r25, 0x0095	; 0x800095 <__data_end+0x1>
 4e6:	01 96       	adiw	r24, 0x01	; 1
 4e8:	90 93 95 00 	sts	0x0095, r25	; 0x800095 <__data_end+0x1>
 4ec:	80 93 94 00 	sts	0x0094, r24	; 0x800094 <__data_end>
 4f0:	08 95       	ret

000004f2 <SPI_MasterInit>:
 4f2:	87 b3       	in	r24, 0x17	; 23
 4f4:	80 6b       	ori	r24, 0xB0	; 176
 4f6:	87 bb       	out	0x17, r24	; 23
 4f8:	be 98       	cbi	0x17, 6	; 23
 4fa:	81 e5       	ldi	r24, 0x51	; 81
 4fc:	8d b9       	out	0x0d, r24	; 13
 4fe:	08 95       	ret

00000500 <SPI_Transmitter>:
	
}

unsigned char SPI_Transmitter(unsigned char SPI_DATA)
{
	SPDR = SPI_DATA;			//start transmission
 500:	8f b9       	out	0x0f, r24	; 15
	while( !(SPSR & (1<<SPIF)) );	//wait for the transmission to complete 
 502:	77 9b       	sbis	0x0e, 7	; 14
 504:	fe cf       	rjmp	.-4      	; 0x502 <SPI_Transmitter+0x2>
	return SPDR;				//return receive data
 506:	8f b1       	in	r24, 0x0f	; 15
 508:	08 95       	ret

0000050a <main>:
 */ 

int main(void)
{
	unsigned char counter=0;
	LCD_Init();
 50a:	0e 94 d4 01 	call	0x3a8	; 0x3a8 <LCD_Init>
	LCD_GeneralMessage(0,0,"Welcome!       .","Motor Drive P.1M"); // LCD Start message
 50e:	22 e7       	ldi	r18, 0x72	; 114
 510:	30 e0       	ldi	r19, 0x00	; 0
 512:	43 e8       	ldi	r20, 0x83	; 131
 514:	50 e0       	ldi	r21, 0x00	; 0
 516:	60 e0       	ldi	r22, 0x00	; 0
 518:	80 e0       	ldi	r24, 0x00	; 0
 51a:	0e 94 dc 00 	call	0x1b8	; 0x1b8 <LCD_GeneralMessage>
	//LCD_GeneralMessage(99,4,"","bye P.1M"); // testing function to LCD_GeneralMessage
	LCD_Pass_Req01();
 51e:	0e 94 f2 01 	call	0x3e4	; 0x3e4 <LCD_Pass_Req01>
	SPI_MasterInit();
 522:	0e 94 79 02 	call	0x4f2	; 0x4f2 <SPI_MasterInit>
      while(j<MAX_NUMBER_OF_DIGITS)// LOOP to enter pass and for 1st time till entered 6-i/p from 
      {
        Key=GetKeyPressed(); //Get the position of pressed key...
        PASS[j]=Key;
        LCD_Pass_Req02(Key);
        Key=DEFAULT_KEYPRESS; //Reset the Keypad entry
 526:	1f ef       	ldi	r17, 0xFF	; 255
 528:	1c c0       	rjmp	.+56     	; 0x562 <main+0x58>
	SPI_MasterInit();
	while(1)
    {
      while(j<MAX_NUMBER_OF_DIGITS)// LOOP to enter pass and for 1st time till entered 6-i/p from 
      {
        Key=GetKeyPressed(); //Get the position of pressed key...
 52a:	0e 94 49 00 	call	0x92	; 0x92 <GetKeyPressed>
 52e:	80 93 60 00 	sts	0x0060, r24	; 0x800060 <Key>
        PASS[j]=Key;
 532:	e0 91 94 00 	lds	r30, 0x0094	; 0x800094 <__data_end>
 536:	f0 91 95 00 	lds	r31, 0x0095	; 0x800095 <__data_end+0x1>
 53a:	80 91 60 00 	lds	r24, 0x0060	; 0x800060 <Key>
 53e:	ea 56       	subi	r30, 0x6A	; 106
 540:	ff 4f       	sbci	r31, 0xFF	; 255
 542:	80 83       	st	Z, r24
        LCD_Pass_Req02(Key);
 544:	80 91 60 00 	lds	r24, 0x0060	; 0x800060 <Key>
 548:	0e 94 5b 02 	call	0x4b6	; 0x4b6 <LCD_Pass_Req02>
        Key=DEFAULT_KEYPRESS; //Reset the Keypad entry
 54c:	10 93 60 00 	sts	0x0060, r17	; 0x800060 <Key>
	#else
		//round up by default
		__ticks_dc = (uint32_t)(ceil(fabs(__tmp)));
	#endif

	__builtin_avr_delay_cycles(__ticks_dc);
 550:	2f ef       	ldi	r18, 0xFF	; 255
 552:	81 ee       	ldi	r24, 0xE1	; 225
 554:	94 e0       	ldi	r25, 0x04	; 4
 556:	21 50       	subi	r18, 0x01	; 1
 558:	80 40       	sbci	r24, 0x00	; 0
 55a:	90 40       	sbci	r25, 0x00	; 0
 55c:	e1 f7       	brne	.-8      	; 0x556 <main+0x4c>
 55e:	00 c0       	rjmp	.+0      	; 0x560 <main+0x56>
 560:	00 00       	nop
	//LCD_GeneralMessage(99,4,"","bye P.1M"); // testing function to LCD_GeneralMessage
	LCD_Pass_Req01();
	SPI_MasterInit();
	while(1)
    {
      while(j<MAX_NUMBER_OF_DIGITS)// LOOP to enter pass and for 1st time till entered 6-i/p from 
 562:	80 91 94 00 	lds	r24, 0x0094	; 0x800094 <__data_end>
 566:	90 91 95 00 	lds	r25, 0x0095	; 0x800095 <__data_end+0x1>
 56a:	06 97       	sbiw	r24, 0x06	; 6
 56c:	f4 f2       	brlt	.-68     	; 0x52a <main+0x20>
 56e:	c0 e0       	ldi	r28, 0x00	; 0
 570:	d0 e0       	ldi	r29, 0x00	; 0
        _delay_ms(200);
      }
/************************ SPI SEND DATA TO SLAVE ****************************/	  
	  for(counter=0;counter<MAX_NUMBER_OF_DIGITS;counter++) 
	  {		// Sending 6 digits of password to slave
			SPI_Transmitter( PASS[counter] );
 572:	fe 01       	movw	r30, r28
 574:	ea 56       	subi	r30, 0x6A	; 106
 576:	ff 4f       	sbci	r31, 0xFF	; 255
 578:	80 81       	ld	r24, Z
 57a:	0e 94 80 02 	call	0x500	; 0x500 <SPI_Transmitter>
 57e:	8f e1       	ldi	r24, 0x1F	; 31
 580:	9e e4       	ldi	r25, 0x4E	; 78
 582:	01 97       	sbiw	r24, 0x01	; 1
 584:	f1 f7       	brne	.-4      	; 0x582 <main+0x78>
 586:	00 c0       	rjmp	.+0      	; 0x588 <main+0x7e>
 588:	00 00       	nop
 58a:	21 96       	adiw	r28, 0x01	; 1
        LCD_Pass_Req02(Key);
        Key=DEFAULT_KEYPRESS; //Reset the Keypad entry
        _delay_ms(200);
      }
/************************ SPI SEND DATA TO SLAVE ****************************/	  
	  for(counter=0;counter<MAX_NUMBER_OF_DIGITS;counter++) 
 58c:	c6 30       	cpi	r28, 0x06	; 6
 58e:	d1 05       	cpc	r29, r1
 590:	81 f7       	brne	.-32     	; 0x572 <main+0x68>
 592:	e7 cf       	rjmp	.-50     	; 0x562 <main+0x58>

00000594 <_exit>:
 594:	f8 94       	cli

00000596 <__stop_program>:
 596:	ff cf       	rjmp	.-2      	; 0x596 <__stop_program>
